; Function Attrs: mustprogress uwtable
define hidden void @_ZN5model14register_valueEP4expr(ptr noundef nonnull align 8 dereferenceable(160) %this, ptr noundef nonnull %e) local_unnamed_addr #3 align 2 {
entry:
  %call = tail call noundef ptr @_ZNK4expr8get_sortEv(ptr noundef nonnull align 4 dereferenceable(16) %e)
  %call2 = tail call noundef ptr @_ZN5model11get_factoryEP4sort(ptr noundef nonnull align 8 dereferenceable(160) %this, ptr noundef %call)
  %vtable = load ptr, ptr %call2, align 8
  %vfn = getelementptr inbounds i8, ptr %vtable, i64 40
  %0 = load ptr, ptr %vfn, align 8
  tail call void %0(ptr noundef nonnull align 8 dereferenceable(20) %call2, ptr noundef nonnull %e)
  ret void
}